; ModuleID = '33/2432.c'
source_filename = "33/2432.c"
target datalayout = "e-m:e-p270:32:32-p271:32:32-p272:64:64-i64:64-f80:128-n8:16:32:64-S128"
target triple = "x86_64-pc-linux-gnu"

@.str = private unnamed_addr constant [3 x i8] c"%d\00", align 1
@.str.1 = private unnamed_addr constant [3 x i8] c"%s\00", align 1
@.str.2 = private unnamed_addr constant [4 x i8] c"%s\0A\00", align 1

; Function Attrs: noinline nounwind uwtable
define dso_local signext i8 @swap(i8 signext %0) #0 {
  %2 = alloca i8, align 1
  %3 = alloca i8, align 1
  store i8 %0, i8* %2, align 1
  %4 = load i8, i8* %2, align 1
  %5 = sext i8 %4 to i32
  %6 = icmp eq i32 %5, 65
  br i1 %6, label %7, label %8

7:                                                ; preds = %1
  store i8 84, i8* %3, align 1
  br label %8

8:                                                ; preds = %7, %1
  %9 = load i8, i8* %2, align 1
  %10 = sext i8 %9 to i32
  %11 = icmp eq i32 %10, 84
  br i1 %11, label %12, label %13

12:                                               ; preds = %8
  store i8 65, i8* %3, align 1
  br label %13

13:                                               ; preds = %12, %8
  %14 = load i8, i8* %2, align 1
  %15 = sext i8 %14 to i32
  %16 = icmp eq i32 %15, 71
  br i1 %16, label %17, label %18

17:                                               ; preds = %13
  store i8 67, i8* %3, align 1
  br label %18

18:                                               ; preds = %17, %13
  %19 = load i8, i8* %2, align 1
  %20 = sext i8 %19 to i32
  %21 = icmp eq i32 %20, 67
  br i1 %21, label %22, label %23

22:                                               ; preds = %18
  store i8 71, i8* %3, align 1
  br label %23

23:                                               ; preds = %22, %18
  %24 = load i8, i8* %3, align 1
  ret i8 %24
}

; Function Attrs: noinline nounwind uwtable
define dso_local i32 @main() #0 {
  %1 = alloca i32, align 4
  %2 = alloca i32, align 4
  %3 = alloca i32, align 4
  %4 = alloca i32, align 4
  %5 = alloca i32, align 4
  %6 = alloca [50000 x i8], align 16
  store i32 0, i32* %1, align 4
  %7 = call i32 (i8*, ...) @__isoc99_scanf(i8* getelementptr inbounds ([3 x i8], [3 x i8]* @.str, i64 0, i64 0), i32* %2)
  store i32 0, i32* %3, align 4
  br label %8

8:                                                ; preds = %37, %0
  %9 = load i32, i32* %3, align 4
  %10 = load i32, i32* %2, align 4
  %11 = icmp slt i32 %9, %10
  br i1 %11, label %12, label %40

12:                                               ; preds = %8
  %13 = getelementptr inbounds [50000 x i8], [50000 x i8]* %6, i64 0, i64 0
  %14 = call i32 (i8*, ...) @__isoc99_scanf(i8* getelementptr inbounds ([3 x i8], [3 x i8]* @.str.1, i64 0, i64 0), i8* %13)
  %15 = getelementptr inbounds [50000 x i8], [50000 x i8]* %6, i64 0, i64 0
  %16 = call i64 @strlen(i8* %15) #3
  %17 = trunc i64 %16 to i32
  store i32 %17, i32* %5, align 4
  store i32 0, i32* %4, align 4
  br label %18

18:                                               ; preds = %31, %12
  %19 = load i32, i32* %4, align 4
  %20 = load i32, i32* %5, align 4
  %21 = icmp slt i32 %19, %20
  br i1 %21, label %22, label %34

22:                                               ; preds = %18
  %23 = load i32, i32* %4, align 4
  %24 = sext i32 %23 to i64
  %25 = getelementptr inbounds [50000 x i8], [50000 x i8]* %6, i64 0, i64 %24
  %26 = load i8, i8* %25, align 1
  %27 = call signext i8 @swap(i8 signext %26)
  %28 = load i32, i32* %4, align 4
  %29 = sext i32 %28 to i64
  %30 = getelementptr inbounds [50000 x i8], [50000 x i8]* %6, i64 0, i64 %29
  store i8 %27, i8* %30, align 1
  br label %31

31:                                               ; preds = %22
  %32 = load i32, i32* %4, align 4
  %33 = add nsw i32 %32, 1
  store i32 %33, i32* %4, align 4
  br label %18

34:                                               ; preds = %18
  %35 = getelementptr inbounds [50000 x i8], [50000 x i8]* %6, i64 0, i64 0
  %36 = call i32 (i8*, ...) @printf(i8* getelementptr inbounds ([4 x i8], [4 x i8]* @.str.2, i64 0, i64 0), i8* %35)
  br label %37

37:                                               ; preds = %34
  %38 = load i32, i32* %3, align 4
  %39 = add nsw i32 %38, 1
  store i32 %39, i32* %3, align 4
  br label %8

40:                                               ; preds = %8
  ret i32 0
}

declare dso_local i32 @__isoc99_scanf(i8*, ...) #1

; Function Attrs: nounwind readonly
declare dso_local i64 @strlen(i8*) #2

declare dso_local i32 @printf(i8*, ...) #1


!llvm.module.flags = !{!0}
!llvm.ident = !{!1}

!0 = !{i32 1, !"wchar_size", i32 4}
!1 = !{!"clang version 10.0.0-4ubuntu1 "}
